target datalayout = "e-m:e-p270:32:32-p271:32:32-p272:64:64-i64:64-i128:128-f80:128-n8:16:32:64-S128"
target triple = "x86_64-pc-linux-gnu"

%struct.evp_cipher_st = type { i32, i32, i32, i32, i64, i32, ptr, ptr, ptr, i32, ptr, ptr, ptr, ptr, i32, ptr, ptr, ptr, %struct.CRYPTO_REF_COUNT, ptr, ptr, ptr, ptr, ptr, ptr, ptr, ptr, ptr, ptr, ptr, ptr, ptr, ptr, ptr, ptr, ptr, ptr, ptr, ptr }
%struct.CRYPTO_REF_COUNT = type { i32 }

; Function Attrs: nounwind uwtable
define ptr @EVP_CIPHER_gettable_params(ptr noundef %0) #0 {
  %2 = alloca ptr, align 8
  %3 = alloca ptr, align 8
  store ptr %0, ptr %3, align 8, !tbaa !27
  %4 = load ptr, ptr %3, align 8, !tbaa !27
  %5 = icmp ne ptr %4, null
  br i1 %5, label %6, label %19

6:                                                ; preds = %1
  %7 = load ptr, ptr %3, align 8, !tbaa !27
  %8 = getelementptr inbounds nuw %struct.evp_cipher_st, ptr %7, i32 0, i32 34
  %9 = load ptr, ptr %8, align 8, !tbaa !92
  %10 = icmp ne ptr %9, null
  br i1 %10, label %11, label %19

11:                                               ; preds = %6
  %12 = load ptr, ptr %3, align 8, !tbaa !27
  %13 = getelementptr inbounds nuw %struct.evp_cipher_st, ptr %12, i32 0, i32 34
  %14 = load ptr, ptr %13, align 8, !tbaa !92
  %15 = load ptr, ptr %3, align 8, !tbaa !27
  %16 = call ptr @EVP_CIPHER_get0_provider(ptr noundef %15)
  %17 = call ptr @ossl_provider_ctx(ptr noundef %16)
  %18 = call ptr %14(ptr noundef %17)
  store ptr %18, ptr %2, align 8
  br label %20

19:                                               ; preds = %6, %1
  store ptr null, ptr %2, align 8
  br label %20

20:                                               ; preds = %19, %11
  %21 = load ptr, ptr %2, align 8
  ret ptr %21
}